
add:     file format elf32-littleriscv


Disassembly of section .text:

00010094 <main>:
   10094:	fd010113          	addi	sp,sp,-48
   10098:	02812623          	sw	s0,44(sp)
   1009c:	03010413          	addi	s0,sp,48
   100a0:	fca42e23          	sw	a0,-36(s0)
   100a4:	fcb42c23          	sw	a1,-40(s0)
   100a8:	00100793          	li	a5,1
   100ac:	fef42623          	sw	a5,-20(s0)
   100b0:	00200793          	li	a5,2
   100b4:	fef42423          	sw	a5,-24(s0)
   100b8:	fec42703          	lw	a4,-20(s0)
   100bc:	fe842783          	lw	a5,-24(s0)
   100c0:	00f707b3          	add	a5,a4,a5
   100c4:	fef42223          	sw	a5,-28(s0)
   100c8:	00000793          	li	a5,0
   100cc:	00078513          	mv	a0,a5
   100d0:	02c12403          	lw	s0,44(sp)
   100d4:	03010113          	addi	sp,sp,48
   100d8:	00008067          	ret

000100dc <_start>:
   100dc:	ff010113          	addi	sp,sp,-16
   100e0:	00112623          	sw	ra,12(sp)
   100e4:	00812423          	sw	s0,8(sp)
   100e8:	01010413          	addi	s0,sp,16
   100ec:	00000593          	li	a1,0
   100f0:	00000513          	li	a0,0
   100f4:	fa1ff0ef          	jal	ra,10094 <main>
   100f8:	00000013          	nop
   100fc:	00c12083          	lw	ra,12(sp)
   10100:	00812403          	lw	s0,8(sp)
   10104:	01010113          	addi	sp,sp,16
   10108:	00008067          	ret
