
calls:     file format elf32-littleriscv


Disassembly of section .text:

00010094 <a>:
   10094:	ff010113          	addi	sp,sp,-16
   10098:	00812623          	sw	s0,12(sp)
   1009c:	01010413          	addi	s0,sp,16
   100a0:	00000013          	nop
   100a4:	00c12403          	lw	s0,12(sp)
   100a8:	01010113          	addi	sp,sp,16
   100ac:	00008067          	ret

000100b0 <b>:
   100b0:	fe010113          	addi	sp,sp,-32
   100b4:	00812e23          	sw	s0,28(sp)
   100b8:	02010413          	addi	s0,sp,32
   100bc:	fea42623          	sw	a0,-20(s0)
   100c0:	fec42783          	lw	a5,-20(s0)
   100c4:	00178793          	addi	a5,a5,1
   100c8:	00078513          	mv	a0,a5
   100cc:	01c12403          	lw	s0,28(sp)
   100d0:	02010113          	addi	sp,sp,32
   100d4:	00008067          	ret

000100d8 <c>:
   100d8:	ff010113          	addi	sp,sp,-16
   100dc:	00112623          	sw	ra,12(sp)
   100e0:	00812423          	sw	s0,8(sp)
   100e4:	01010413          	addi	s0,sp,16
   100e8:	fadff0ef          	jal	ra,10094 <a>
   100ec:	00000013          	nop
   100f0:	00c12083          	lw	ra,12(sp)
   100f4:	00812403          	lw	s0,8(sp)
   100f8:	01010113          	addi	sp,sp,16
   100fc:	00008067          	ret

00010100 <main>:
   10100:	fe010113          	addi	sp,sp,-32
   10104:	00112e23          	sw	ra,28(sp)
   10108:	00812c23          	sw	s0,24(sp)
   1010c:	02010413          	addi	s0,sp,32
   10110:	f85ff0ef          	jal	ra,10094 <a>
   10114:	fec42503          	lw	a0,-20(s0)
   10118:	f99ff0ef          	jal	ra,100b0 <b>
   1011c:	fea42423          	sw	a0,-24(s0)
   10120:	fb9ff0ef          	jal	ra,100d8 <c>
   10124:	00000013          	nop
   10128:	01c12083          	lw	ra,28(sp)
   1012c:	01812403          	lw	s0,24(sp)
   10130:	02010113          	addi	sp,sp,32
   10134:	00008067          	ret

00010138 <_start>:
   10138:	ff010113          	addi	sp,sp,-16
   1013c:	00112623          	sw	ra,12(sp)
   10140:	00812423          	sw	s0,8(sp)
   10144:	01010413          	addi	s0,sp,16
   10148:	fb9ff0ef          	jal	ra,10100 <main>
   1014c:	00000013          	nop
   10150:	00c12083          	lw	ra,12(sp)
   10154:	00812403          	lw	s0,8(sp)
   10158:	01010113          	addi	sp,sp,16
   1015c:	00008067          	ret
